; Function Attrs: nounwind uwtable
define noundef ptr @Abc_NtkDRefactor(ptr noundef %0, ptr noundef %1) local_unnamed_addr #1 {
  %3 = alloca %struct.timespec, align 8
  %4 = tail call ptr @Abc_NtkToDar(ptr noundef %0, i32 noundef 0, i32 noundef 0)
  %5 = icmp eq ptr %4, null
  br i1 %5, label %10, label %Abc_Clock.exit

Abc_Clock.exit:                                   ; preds = %2
  %6 = tail call i32 @Dar_ManRefactor(ptr noundef nonnull %4, ptr noundef %1) #19
  call void @llvm.lifetime.start.p0(i64 16, ptr nonnull %3)
  %7 = call i32 @clock_gettime(i32 noundef 1, ptr noundef nonnull %3) #19
  call void @llvm.lifetime.end.p0(i64 16, ptr nonnull %3)
  %8 = call ptr @Aig_ManDupDfs(ptr noundef nonnull %4) #19
  call void @Aig_ManStop(ptr noundef nonnull %4) #19
  %9 = call ptr @Abc_NtkFromDar(ptr noundef %0, ptr noundef %8)
  call void @Aig_ManStop(ptr noundef %8) #19
  br label %10

10:                                               ; preds = %2, %Abc_Clock.exit
  %.0 = phi ptr [ %9, %Abc_Clock.exit ], [ null, %2 ]
  ret ptr %.0
}